target datalayout = "e-m:e-p270:32:32-p271:32:32-p272:64:64-i64:64-i128:128-f80:128-n8:16:32:64-S128"
target triple = "x86_64-pc-linux-gnu"

%class.ObjectDescriptionBuilder = type { [100 x i8], i64 }
%class.ObjectSampleDescription = type { [8 x i8], %class.ObjectDescriptionBuilder, ptr }

@_ZN24ObjectDescriptionBuilderC1Ev = hidden unnamed_addr alias void (ptr), ptr @_ZN24ObjectDescriptionBuilderC2Ev

; Function Attrs: mustprogress nounwind uwtable
define hidden void @_ZN23ObjectSampleDescriptionC2EP7oopDesc(ptr noundef nonnull align 8 dereferenceable(128) %0, ptr noundef %1) unnamed_addr #1 align 2 {
  %3 = alloca ptr, align 8
  %4 = alloca ptr, align 8
  store ptr %0, ptr %3, align 8
  store ptr %1, ptr %4, align 8
  %5 = load ptr, ptr %3, align 8
  %6 = getelementptr inbounds %class.ObjectSampleDescription, ptr %5, i32 0, i32 1
  call void @_ZN24ObjectDescriptionBuilderC1Ev(ptr noundef nonnull align 8 dereferenceable(112) %6)
  %7 = getelementptr inbounds %class.ObjectSampleDescription, ptr %5, i32 0, i32 2
  %8 = load ptr, ptr %4, align 8
  store ptr %8, ptr %7, align 8
  ret void
}