; Function Attrs: mustprogress nofree norecurse nosync nounwind willreturn memory(argmem: write) uwtable
define hidden void @_ZN23ObjectSampleDescriptionC2EP7oopDesc(ptr nocapture noundef nonnull writeonly align 8 dereferenceable(128) %0, ptr noundef %1) unnamed_addr #0 align 2 {
  %3 = getelementptr inbounds i8, ptr %0, i64 8
  %4 = getelementptr inbounds i8, ptr %0, i64 112
  store i64 0, ptr %4, align 8
  store i8 0, ptr %3, align 8
  %5 = getelementptr inbounds i8, ptr %0, i64 120
  store ptr %1, ptr %5, align 8
  ret void
}